target datalayout = "e-m:e-p270:32:32-p271:32:32-p272:64:64-i64:64-i128:128-f80:128-n8:16:32:64-S128"
target triple = "x86_64-pc-linux-gnu"

%struct.kill_jobs_resp_job_t = type { i32, ptr, ptr, i32, ptr }
%struct.kill_jobs_resp_msg_t = type { ptr, i32 }

; Function Attrs: nounwind uwtable
define dso_local void @slurm_free_kill_jobs_resp_job_t(ptr noundef %0) #0 {
  %2 = alloca ptr, align 8
  store ptr %0, ptr %2, align 8
  %3 = load ptr, ptr %2, align 8
  %4 = icmp ne ptr %3, null
  br i1 %4, label %6, label %5

5:                                                ; preds = %1
  br label %13

6:                                                ; preds = %1
  %7 = load ptr, ptr %2, align 8
  %8 = getelementptr inbounds nuw %struct.kill_jobs_resp_job_t, ptr %7, i32 0, i32 1
  call void @slurm_xfree(ptr noundef %8)
  %9 = load ptr, ptr %2, align 8
  %10 = getelementptr inbounds nuw %struct.kill_jobs_resp_job_t, ptr %9, i32 0, i32 2
  call void @slurm_xfree(ptr noundef %10)
  %11 = load ptr, ptr %2, align 8
  %12 = getelementptr inbounds nuw %struct.kill_jobs_resp_job_t, ptr %11, i32 0, i32 4
  call void @slurm_xfree(ptr noundef %12)
  br label %13

13:                                               ; preds = %6, %5
  ret void
}

; Function Attrs: nounwind uwtable
define dso_local void @slurm_free_kill_jobs_response_msg(ptr noundef %0) #0 {
  %2 = alloca ptr, align 8
  %3 = alloca i32, align 4
  store ptr %0, ptr %2, align 8
  %4 = load ptr, ptr %2, align 8
  %5 = icmp ne ptr %4, null
  br i1 %5, label %7, label %6

6:                                                ; preds = %1
  br label %28

7:                                                ; preds = %1
  call void @llvm.lifetime.start.p0(i64 4, ptr %3) #11
  store i32 0, ptr %3, align 4
  br label %8

8:                                                ; preds = %22, %7
  %9 = load i32, ptr %3, align 4
  %10 = load ptr, ptr %2, align 8
  %11 = getelementptr inbounds nuw %struct.kill_jobs_resp_msg_t, ptr %10, i32 0, i32 1
  %12 = load i32, ptr %11, align 8
  %13 = icmp ult i32 %9, %12
  br i1 %13, label %15, label %14

14:                                               ; preds = %8
  call void @llvm.lifetime.end.p0(i64 4, ptr %3) #11
  br label %25

15:                                               ; preds = %8
  %16 = load ptr, ptr %2, align 8
  %17 = getelementptr inbounds nuw %struct.kill_jobs_resp_msg_t, ptr %16, i32 0, i32 0
  %18 = load ptr, ptr %17, align 8
  %19 = load i32, ptr %3, align 4
  %20 = sext i32 %19 to i64
  %21 = getelementptr inbounds %struct.kill_jobs_resp_job_t, ptr %18, i64 %20
  call void @slurm_free_kill_jobs_resp_job_t(ptr noundef %21)
  br label %22

22:                                               ; preds = %15
  %23 = load i32, ptr %3, align 4
  %24 = add nsw i32 %23, 1
  store i32 %24, ptr %3, align 4
  br label %8, !llvm.loop !30

25:                                               ; preds = %14
  %26 = load ptr, ptr %2, align 8
  %27 = getelementptr inbounds nuw %struct.kill_jobs_resp_msg_t, ptr %26, i32 0, i32 0
  call void @slurm_xfree(ptr noundef %27)
  call void @slurm_xfree(ptr noundef %2)
  br label %28

28:                                               ; preds = %25, %6
  ret void
}