; Function Attrs: nounwind uwtable
define dso_local void @slurm_free_kill_jobs_response_msg(ptr noundef %0) local_unnamed_addr #1 {
  %2 = alloca ptr, align 8
  store ptr %0, ptr %2, align 8
  %.not = icmp eq ptr %0, null
  br i1 %.not, label %17, label %.preheader

.preheader:                                       ; preds = %1
  %3 = getelementptr inbounds nuw i8, ptr %0, i64 8
  %4 = load i32, ptr %3, align 8
  %.not4 = icmp eq i32 %4, 0
  br i1 %.not4, label %._crit_edge, label %.lr.ph

.lr.ph:                                           ; preds = %.preheader
  %5 = load ptr, ptr %0, align 8
  %6 = icmp eq ptr %5, null
  br i1 %6, label %._crit_edge, label %.lr.ph.split

._crit_edge:                                      ; preds = %slurm_free_kill_jobs_resp_job_t.exit, %.lr.ph, %.preheader
  tail call void @slurm_xfree(ptr noundef nonnull %0) #24
  call void @slurm_xfree(ptr noundef nonnull %2) #24
  br label %17

.lr.ph.splitthread-pre-split:                     ; preds = %slurm_free_kill_jobs_resp_job_t.exit
  %.pr = load ptr, ptr %0, align 8
  br label %.lr.ph.split

.lr.ph.split:                                     ; preds = %.lr.ph, %.lr.ph.splitthread-pre-split
  %7 = phi ptr [ %.pr, %.lr.ph.splitthread-pre-split ], [ %5, %.lr.ph ]
  %8 = phi i32 [ %14, %.lr.ph.splitthread-pre-split ], [ %4, %.lr.ph ]
  %indvars.iv = phi i64 [ %indvars.iv.next, %.lr.ph.splitthread-pre-split ], [ 0, %.lr.ph ]
  %.not.i = icmp eq ptr %7, null
  br i1 %.not.i, label %slurm_free_kill_jobs_resp_job_t.exit, label %9

9:                                                ; preds = %.lr.ph.split
  %10 = getelementptr inbounds nuw %struct.kill_jobs_resp_job_t, ptr %7, i64 %indvars.iv
  %11 = getelementptr inbounds nuw i8, ptr %10, i64 8
  tail call void @slurm_xfree(ptr noundef nonnull %11) #24
  %12 = getelementptr inbounds nuw i8, ptr %10, i64 16
  tail call void @slurm_xfree(ptr noundef nonnull %12) #24
  %13 = getelementptr inbounds nuw i8, ptr %10, i64 32
  tail call void @slurm_xfree(ptr noundef nonnull %13) #24
  %.pre = load i32, ptr %3, align 8
  br label %slurm_free_kill_jobs_resp_job_t.exit

slurm_free_kill_jobs_resp_job_t.exit:             ; preds = %.lr.ph.split, %9
  %14 = phi i32 [ %8, %.lr.ph.split ], [ %.pre, %9 ]
  %indvars.iv.next = add nuw nsw i64 %indvars.iv, 1
  %15 = zext i32 %14 to i64
  %16 = icmp samesign ult i64 %indvars.iv.next, %15
  br i1 %16, label %.lr.ph.splitthread-pre-split, label %._crit_edge, !llvm.loop !30

17:                                               ; preds = %1, %._crit_edge
  ret void
}